; ModuleID = '59/1289.c'
source_filename = "59/1289.c"
target datalayout = "e-m:e-p270:32:32-p271:32:32-p272:64:64-i64:64-f80:128-n8:16:32:64-S128"
target triple = "x86_64-pc-linux-gnu"

@.str = private unnamed_addr constant [4 x i8] c"%d\0A\00", align 1
@.str.1 = private unnamed_addr constant [3 x i8] c"%s\00", align 1
@.str.2 = private unnamed_addr constant [3 x i8] c"%d\00", align 1

; Function Attrs: noinline nounwind uwtable
define dso_local i32 @main() #0 {
  %1 = alloca i32, align 4
  %2 = alloca [110 x [110 x i8]], align 16
  %3 = alloca [110 x [110 x i8]], align 16
  %4 = alloca i32, align 4
  %5 = alloca i32, align 4
  %6 = alloca i32, align 4
  %7 = alloca i32, align 4
  %8 = alloca i32, align 4
  %9 = alloca i32, align 4
  store i32 0, i32* %1, align 4
  %10 = call i32 (i8*, ...) @__isoc99_scanf(i8* getelementptr inbounds ([4 x i8], [4 x i8]* @.str, i64 0, i64 0), i32* %4)
  store i32 1, i32* %6, align 4
  br label %11

11:                                               ; preds = %22, %0
  %12 = load i32, i32* %6, align 4
  %13 = load i32, i32* %4, align 4
  %14 = icmp sle i32 %12, %13
  br i1 %14, label %15, label %25

15:                                               ; preds = %11
  %16 = load i32, i32* %6, align 4
  %17 = sext i32 %16 to i64
  %18 = getelementptr inbounds [110 x [110 x i8]], [110 x [110 x i8]]* %2, i64 0, i64 %17
  %19 = getelementptr inbounds [110 x i8], [110 x i8]* %18, i64 0, i64 0
  %20 = getelementptr inbounds i8, i8* %19, i64 1
  %21 = call i32 (i8*, ...) @__isoc99_scanf(i8* getelementptr inbounds ([3 x i8], [3 x i8]* @.str.1, i64 0, i64 0), i8* %20)
  br label %22

22:                                               ; preds = %15
  %23 = load i32, i32* %6, align 4
  %24 = add nsw i32 %23, 1
  store i32 %24, i32* %6, align 4
  br label %11

25:                                               ; preds = %11
  %26 = call i32 (i8*, ...) @__isoc99_scanf(i8* getelementptr inbounds ([3 x i8], [3 x i8]* @.str.2, i64 0, i64 0), i32* %5)
  store i32 1, i32* %8, align 4
  br label %27

27:                                               ; preds = %156, %25
  %28 = load i32, i32* %8, align 4
  %29 = load i32, i32* %5, align 4
  %30 = icmp slt i32 %28, %29
  br i1 %30, label %31, label %159

31:                                               ; preds = %27
  store i32 1, i32* %6, align 4
  br label %32

32:                                               ; preds = %121, %31
  %33 = load i32, i32* %6, align 4
  %34 = load i32, i32* %4, align 4
  %35 = icmp sle i32 %33, %34
  br i1 %35, label %36, label %124

36:                                               ; preds = %32
  store i32 1, i32* %7, align 4
  br label %37

37:                                               ; preds = %117, %36
  %38 = load i32, i32* %7, align 4
  %39 = load i32, i32* %4, align 4
  %40 = icmp sle i32 %38, %39
  br i1 %40, label %41, label %120

41:                                               ; preds = %37
  %42 = load i32, i32* %6, align 4
  %43 = sext i32 %42 to i64
  %44 = getelementptr inbounds [110 x [110 x i8]], [110 x [110 x i8]]* %2, i64 0, i64 %43
  %45 = load i32, i32* %7, align 4
  %46 = sext i32 %45 to i64
  %47 = getelementptr inbounds [110 x i8], [110 x i8]* %44, i64 0, i64 %46
  %48 = load i8, i8* %47, align 1
  %49 = sext i8 %48 to i32
  %50 = icmp eq i32 %49, 46
  br i1 %50, label %51, label %102

51:                                               ; preds = %41
  %52 = load i32, i32* %6, align 4
  %53 = sub nsw i32 %52, 1
  %54 = sext i32 %53 to i64
  %55 = getelementptr inbounds [110 x [110 x i8]], [110 x [110 x i8]]* %2, i64 0, i64 %54
  %56 = load i32, i32* %7, align 4
  %57 = sext i32 %56 to i64
  %58 = getelementptr inbounds [110 x i8], [110 x i8]* %55, i64 0, i64 %57
  %59 = load i8, i8* %58, align 1
  %60 = sext i8 %59 to i32
  %61 = icmp eq i32 %60, 64
  br i1 %61, label %95, label %62

62:                                               ; preds = %51
  %63 = load i32, i32* %6, align 4
  %64 = sext i32 %63 to i64
  %65 = getelementptr inbounds [110 x [110 x i8]], [110 x [110 x i8]]* %2, i64 0, i64 %64
  %66 = load i32, i32* %7, align 4
  %67 = sub nsw i32 %66, 1
  %68 = sext i32 %67 to i64
  %69 = getelementptr inbounds [110 x i8], [110 x i8]* %65, i64 0, i64 %68
  %70 = load i8, i8* %69, align 1
  %71 = sext i8 %70 to i32
  %72 = icmp eq i32 %71, 64
  br i1 %72, label %95, label %73

73:                                               ; preds = %62
  %74 = load i32, i32* %6, align 4
  %75 = add nsw i32 %74, 1
  %76 = sext i32 %75 to i64
  %77 = getelementptr inbounds [110 x [110 x i8]], [110 x [110 x i8]]* %2, i64 0, i64 %76
  %78 = load i32, i32* %7, align 4
  %79 = sext i32 %78 to i64
  %80 = getelementptr inbounds [110 x i8], [110 x i8]* %77, i64 0, i64 %79
  %81 = load i8, i8* %80, align 1
  %82 = sext i8 %81 to i32
  %83 = icmp eq i32 %82, 64
  br i1 %83, label %95, label %84

84:                                               ; preds = %73
  %85 = load i32, i32* %6, align 4
  %86 = sext i32 %85 to i64
  %87 = getelementptr inbounds [110 x [110 x i8]], [110 x [110 x i8]]* %2, i64 0, i64 %86
  %88 = load i32, i32* %7, align 4
  %89 = add nsw i32 %88, 1
  %90 = sext i32 %89 to i64
  %91 = getelementptr inbounds [110 x i8], [110 x i8]* %87, i64 0, i64 %90
  %92 = load i8, i8* %91, align 1
  %93 = sext i8 %92 to i32
  %94 = icmp eq i32 %93, 64
  br i1 %94, label %95, label %102

95:                                               ; preds = %84, %73, %62, %51
  %96 = load i32, i32* %6, align 4
  %97 = sext i32 %96 to i64
  %98 = getelementptr inbounds [110 x [110 x i8]], [110 x [110 x i8]]* %3, i64 0, i64 %97
  %99 = load i32, i32* %7, align 4
  %100 = sext i32 %99 to i64
  %101 = getelementptr inbounds [110 x i8], [110 x i8]* %98, i64 0, i64 %100
  store i8 64, i8* %101, align 1
  br label %116

102:                                              ; preds = %84, %41
  %103 = load i32, i32* %6, align 4
  %104 = sext i32 %103 to i64
  %105 = getelementptr inbounds [110 x [110 x i8]], [110 x [110 x i8]]* %2, i64 0, i64 %104
  %106 = load i32, i32* %7, align 4
  %107 = sext i32 %106 to i64
  %108 = getelementptr inbounds [110 x i8], [110 x i8]* %105, i64 0, i64 %107
  %109 = load i8, i8* %108, align 1
  %110 = load i32, i32* %6, align 4
  %111 = sext i32 %110 to i64
  %112 = getelementptr inbounds [110 x [110 x i8]], [110 x [110 x i8]]* %3, i64 0, i64 %111
  %113 = load i32, i32* %7, align 4
  %114 = sext i32 %113 to i64
  %115 = getelementptr inbounds [110 x i8], [110 x i8]* %112, i64 0, i64 %114
  store i8 %109, i8* %115, align 1
  br label %116

116:                                              ; preds = %102, %95
  br label %117

117:                                              ; preds = %116
  %118 = load i32, i32* %7, align 4
  %119 = add nsw i32 %118, 1
  store i32 %119, i32* %7, align 4
  br label %37

120:                                              ; preds = %37
  br label %121

121:                                              ; preds = %120
  %122 = load i32, i32* %6, align 4
  %123 = add nsw i32 %122, 1
  store i32 %123, i32* %6, align 4
  br label %32

124:                                              ; preds = %32
  store i32 1, i32* %6, align 4
  br label %125

125:                                              ; preds = %152, %124
  %126 = load i32, i32* %6, align 4
  %127 = load i32, i32* %4, align 4
  %128 = icmp sle i32 %126, %127
  br i1 %128, label %129, label %155

129:                                              ; preds = %125
  store i32 1, i32* %7, align 4
  br label %130

130:                                              ; preds = %148, %129
  %131 = load i32, i32* %7, align 4
  %132 = load i32, i32* %4, align 4
  %133 = icmp sle i32 %131, %132
  br i1 %133, label %134, label %151

134:                                              ; preds = %130
  %135 = load i32, i32* %6, align 4
  %136 = sext i32 %135 to i64
  %137 = getelementptr inbounds [110 x [110 x i8]], [110 x [110 x i8]]* %3, i64 0, i64 %136
  %138 = load i32, i32* %7, align 4
  %139 = sext i32 %138 to i64
  %140 = getelementptr inbounds [110 x i8], [110 x i8]* %137, i64 0, i64 %139
  %141 = load i8, i8* %140, align 1
  %142 = load i32, i32* %6, align 4
  %143 = sext i32 %142 to i64
  %144 = getelementptr inbounds [110 x [110 x i8]], [110 x [110 x i8]]* %2, i64 0, i64 %143
  %145 = load i32, i32* %7, align 4
  %146 = sext i32 %145 to i64
  %147 = getelementptr inbounds [110 x i8], [110 x i8]* %144, i64 0, i64 %146
  store i8 %141, i8* %147, align 1
  br label %148

148:                                              ; preds = %134
  %149 = load i32, i32* %7, align 4
  %150 = add nsw i32 %149, 1
  store i32 %150, i32* %7, align 4
  br label %130

151:                                              ; preds = %130
  br label %152

152:                                              ; preds = %151
  %153 = load i32, i32* %6, align 4
  %154 = add nsw i32 %153, 1
  store i32 %154, i32* %6, align 4
  br label %125

155:                                              ; preds = %125
  br label %156

156:                                              ; preds = %155
  %157 = load i32, i32* %8, align 4
  %158 = add nsw i32 %157, 1
  store i32 %158, i32* %8, align 4
  br label %27

159:                                              ; preds = %27
  store i32 0, i32* %9, align 4
  store i32 1, i32* %6, align 4
  br label %160

160:                                              ; preds = %187, %159
  %161 = load i32, i32* %6, align 4
  %162 = load i32, i32* %4, align 4
  %163 = icmp sle i32 %161, %162
  br i1 %163, label %164, label %190

164:                                              ; preds = %160
  store i32 1, i32* %7, align 4
  br label %165

165:                                              ; preds = %183, %164
  %166 = load i32, i32* %7, align 4
  %167 = load i32, i32* %4, align 4
  %168 = icmp sle i32 %166, %167
  br i1 %168, label %169, label %186

169:                                              ; preds = %165
  %170 = load i32, i32* %6, align 4
  %171 = sext i32 %170 to i64
  %172 = getelementptr inbounds [110 x [110 x i8]], [110 x [110 x i8]]* %2, i64 0, i64 %171
  %173 = load i32, i32* %7, align 4
  %174 = sext i32 %173 to i64
  %175 = getelementptr inbounds [110 x i8], [110 x i8]* %172, i64 0, i64 %174
  %176 = load i8, i8* %175, align 1
  %177 = sext i8 %176 to i32
  %178 = icmp eq i32 %177, 64
  br i1 %178, label %179, label %182

179:                                              ; preds = %169
  %180 = load i32, i32* %9, align 4
  %181 = add nsw i32 %180, 1
  store i32 %181, i32* %9, align 4
  br label %182

182:                                              ; preds = %179, %169
  br label %183

183:                                              ; preds = %182
  %184 = load i32, i32* %7, align 4
  %185 = add nsw i32 %184, 1
  store i32 %185, i32* %7, align 4
  br label %165

186:                                              ; preds = %165
  br label %187

187:                                              ; preds = %186
  %188 = load i32, i32* %6, align 4
  %189 = add nsw i32 %188, 1
  store i32 %189, i32* %6, align 4
  br label %160

190:                                              ; preds = %160
  %191 = load i32, i32* %9, align 4
  %192 = call i32 (i8*, ...) @printf(i8* getelementptr inbounds ([3 x i8], [3 x i8]* @.str.2, i64 0, i64 0), i32 %191)
  ret i32 0
}

declare dso_local i32 @__isoc99_scanf(i8*, ...) #1

declare dso_local i32 @printf(i8*, ...) #1


!llvm.module.flags = !{!0}
!llvm.ident = !{!1}

!0 = !{i32 1, !"wchar_size", i32 4}
!1 = !{!"clang version 10.0.0-4ubuntu1 "}
